target datalayout = "e-m:e-p270:32:32-p271:32:32-p272:64:64-i64:64-i128:128-f80:128-n8:16:32:64-S128"
target triple = "x86_64-pc-linux-gnu"

%struct.RBasic = type { i64, i64 }
%struct.RClass = type { %struct.RBasic, i64, ptr }
%struct.rb_method_entry_struct = type { i64, i64, ptr, i64, i64 }
%struct.rb_method_definition_struct = type { i64, %union.anon.25, i64, i64 }
%union.anon.25 = type { %struct.rb_method_cfunc_struct }
%struct.rb_method_cfunc_struct = type { ptr, ptr, i32 }

; Function Attrs: nounwind sspstrong uwtable
define internal i32 @method_def_arity(ptr noundef %0) #0 {
  %2 = alloca ptr, align 8
  %3 = alloca i32, align 4
  %4 = alloca i32, align 4
  store ptr %0, ptr %2, align 8, !tbaa !110
  call void @llvm.lifetime.start.p0(i64 4, ptr %3) #25
  call void @llvm.lifetime.start.p0(i64 4, ptr %4) #25
  %5 = load ptr, ptr %2, align 8, !tbaa !110
  %6 = call i32 @method_def_min_max_arity(ptr noundef %5, ptr noundef %3)
  store i32 %6, ptr %4, align 4, !tbaa !36
  %7 = load i32, ptr %4, align 4, !tbaa !36
  %8 = load i32, ptr %3, align 4, !tbaa !36
  %9 = icmp eq i32 %7, %8
  br i1 %9, label %10, label %12

10:                                               ; preds = %1
  %11 = load i32, ptr %4, align 4, !tbaa !36
  br label %16

12:                                               ; preds = %1
  %13 = load i32, ptr %4, align 4, !tbaa !36
  %14 = sub i32 0, %13
  %15 = sub i32 %14, 1
  br label %16

16:                                               ; preds = %12, %10
  %17 = phi i32 [ %11, %10 ], [ %15, %12 ]
  call void @llvm.lifetime.end.p0(i64 4, ptr %4) #25
  call void @llvm.lifetime.end.p0(i64 4, ptr %3) #25
  ret i32 %17
}

; Function Attrs: inlinehint nounwind sspstrong uwtable
define internal i64 @RCLASS_SUPER(i64 noundef %0) #3 {
  %2 = alloca i64, align 8
  store i64 %0, ptr %2, align 8, !tbaa !7
  %3 = load i64, ptr %2, align 8, !tbaa !7
  %4 = inttoptr i64 %3 to ptr
  %5 = getelementptr inbounds nuw %struct.RClass, ptr %4, i32 0, i32 1
  %6 = load i64, ptr %5, align 8, !tbaa !102
  ret i64 %6
}

; Function Attrs: nounwind sspstrong uwtable
define hidden i32 @rb_method_entry_arity(ptr noundef %0) #0 {
  %2 = alloca ptr, align 8
  store ptr %0, ptr %2, align 8, !tbaa !108
  %3 = load ptr, ptr %2, align 8, !tbaa !108
  %4 = getelementptr inbounds nuw %struct.rb_method_entry_struct, ptr %3, i32 0, i32 2
  %5 = load ptr, ptr %4, align 8, !tbaa !109
  %6 = call i32 @method_def_arity(ptr noundef %5)
  ret i32 %6
}

; Function Attrs: nounwind sspstrong uwtable
define internal ptr @original_method_entry(i64 noundef %0, i64 noundef %1) #0 {
  %3 = alloca i64, align 8
  %4 = alloca i64, align 8
  %5 = alloca ptr, align 8
  %6 = alloca ptr, align 8
  %7 = alloca i32, align 4
  store i64 %0, ptr %3, align 8, !tbaa !7
  store i64 %1, ptr %4, align 8, !tbaa !7
  call void @llvm.lifetime.start.p0(i64 8, ptr %5) #25
  br label %8

8:                                                ; preds = %33, %2
  %9 = load i64, ptr %3, align 8, !tbaa !7
  %10 = load i64, ptr %4, align 8, !tbaa !7
  %11 = call ptr @rb_method_entry(i64 noundef %9, i64 noundef %10)
  store ptr %11, ptr %5, align 8, !tbaa !108
  %12 = icmp ne ptr %11, null
  br i1 %12, label %13, label %34

13:                                               ; preds = %8
  call void @llvm.lifetime.start.p0(i64 8, ptr %6) #25
  %14 = load ptr, ptr %5, align 8, !tbaa !108
  %15 = getelementptr inbounds nuw %struct.rb_method_entry_struct, ptr %14, i32 0, i32 2
  %16 = load ptr, ptr %15, align 8, !tbaa !109
  store ptr %16, ptr %6, align 8, !tbaa !110
  %17 = load ptr, ptr %6, align 8, !tbaa !110
  %18 = load i64, ptr %17, align 8
  %19 = and i64 %18, 15
  %20 = trunc i64 %19 to i32
  %21 = icmp ne i32 %20, 5
  br i1 %21, label %22, label %23

22:                                               ; preds = %13
  store i32 3, ptr %7, align 4
  br label %31

23:                                               ; preds = %13
  %24 = load ptr, ptr %5, align 8, !tbaa !108
  %25 = getelementptr inbounds nuw %struct.rb_method_entry_struct, ptr %24, i32 0, i32 4
  %26 = load i64, ptr %25, align 8, !tbaa !111
  %27 = call i64 @RCLASS_SUPER(i64 noundef %26)
  store i64 %27, ptr %3, align 8, !tbaa !7
  %28 = load ptr, ptr %6, align 8, !tbaa !110
  %29 = getelementptr inbounds nuw %struct.rb_method_definition_struct, ptr %28, i32 0, i32 2
  %30 = load i64, ptr %29, align 8, !tbaa !112
  store i64 %30, ptr %4, align 8, !tbaa !7
  store i32 0, ptr %7, align 4
  br label %31

31:                                               ; preds = %23, %22
  call void @llvm.lifetime.end.p0(i64 8, ptr %6) #25
  %32 = load i32, ptr %7, align 4
  switch i32 %32, label %36 [
    i32 0, label %33
    i32 3, label %34
  ]

33:                                               ; preds = %31
  br label %8, !llvm.loop !114

34:                                               ; preds = %31, %8
  %35 = load ptr, ptr %5, align 8, !tbaa !108
  store i32 1, ptr %7, align 4
  call void @llvm.lifetime.end.p0(i64 8, ptr %5) #25
  ret ptr %35

36:                                               ; preds = %31
  unreachable
}

; Function Attrs: nounwind sspstrong uwtable
define dso_local i32 @rb_mod_method_arity(i64 noundef %0, i64 noundef %1) #0 {
  %3 = alloca i32, align 4
  %4 = alloca i64, align 8
  %5 = alloca i64, align 8
  %6 = alloca ptr, align 8
  %7 = alloca i32, align 4
  store i64 %0, ptr %4, align 8, !tbaa !7
  store i64 %1, ptr %5, align 8, !tbaa !7
  call void @llvm.lifetime.start.p0(i64 8, ptr %6) #25
  %8 = load i64, ptr %4, align 8, !tbaa !7
  %9 = load i64, ptr %5, align 8, !tbaa !7
  %10 = call ptr @original_method_entry(i64 noundef %8, i64 noundef %9)
  store ptr %10, ptr %6, align 8, !tbaa !108
  %11 = load ptr, ptr %6, align 8, !tbaa !108
  %12 = icmp ne ptr %11, null
  br i1 %12, label %14, label %13

13:                                               ; preds = %2
  store i32 0, ptr %3, align 4
  store i32 1, ptr %7, align 4
  br label %17

14:                                               ; preds = %2
  %15 = load ptr, ptr %6, align 8, !tbaa !108
  %16 = call i32 @rb_method_entry_arity(ptr noundef %15)
  store i32 %16, ptr %3, align 4
  store i32 1, ptr %7, align 4
  br label %17

17:                                               ; preds = %14, %13
  call void @llvm.lifetime.end.p0(i64 8, ptr %6) #25
  %18 = load i32, ptr %3, align 4
  ret i32 %18
}