; Function Attrs: nounwind sspstrong uwtable
define dso_local i32 @rb_mod_method_arity(i64 noundef %0, i64 noundef %1) local_unnamed_addr #0 {
  %3 = alloca i32, align 4
  %4 = tail call ptr @rb_method_entry(i64 noundef %0, i64 noundef %1) #21
  %.not16.i = icmp eq ptr %4, null
  br i1 %.not16.i, label %original_method_entry.exit.thread, label %.lr.ph.i

.lr.ph.i:                                         ; preds = %2, %10
  %5 = phi ptr [ %18, %10 ], [ %4, %2 ]
  %6 = getelementptr inbounds nuw i8, ptr %5, i64 16
  %7 = load ptr, ptr %6, align 8, !tbaa !77
  %8 = load i64, ptr %7, align 8
  %9 = and i64 %8, 15
  %.not11.i = icmp eq i64 %9, 5
  br i1 %.not11.i, label %10, label %original_method_entry.exit

10:                                               ; preds = %.lr.ph.i
  %11 = getelementptr inbounds nuw i8, ptr %5, i64 32
  %12 = load i64, ptr %11, align 8, !tbaa !104
  %13 = inttoptr i64 %12 to ptr
  %14 = getelementptr inbounds nuw i8, ptr %13, i64 16
  %15 = load i64, ptr %14, align 8, !tbaa !102
  %16 = getelementptr inbounds nuw i8, ptr %7, i64 32
  %17 = load i64, ptr %16, align 8, !tbaa !105
  %18 = tail call ptr @rb_method_entry(i64 noundef %15, i64 noundef %17) #21
  %.not.i = icmp eq ptr %18, null
  br i1 %.not.i, label %original_method_entry.exit.thread, label %.lr.ph.i

original_method_entry.exit:                       ; preds = %.lr.ph.i
  call void @llvm.lifetime.start.p0(i64 4, ptr nonnull %3) #21
  %19 = call fastcc i32 @method_def_min_max_arity(ptr noundef nonnull %7, ptr noundef nonnull %3)
  %20 = load i32, ptr %3, align 4, !tbaa !41
  %21 = icmp ne i32 %19, %20
  %22 = sext i1 %21 to i32
  %23 = xor i32 %19, %22
  call void @llvm.lifetime.end.p0(i64 4, ptr nonnull %3) #21
  br label %original_method_entry.exit.thread

original_method_entry.exit.thread:                ; preds = %10, %2, %original_method_entry.exit
  %.0 = phi i32 [ %23, %original_method_entry.exit ], [ 0, %2 ], [ 0, %10 ]
  ret i32 %.0
}